target datalayout = "e-m:e-p270:32:32-p271:32:32-p272:64:64-i64:64-i128:128-f80:128-n8:16:32:64-S128"
target triple = "x86_64-pc-linux-gnu"

%class.ReservedSpace = type <{ ptr, i64, i64, i64, i64, i8, [3 x i8], i32, i8, [7 x i8] }>
%class.ShenandoahCollectionSet = type { i64, i64, %class.ReservedSpace, ptr, ptr, ptr, i64, i64, i64, [64 x i8], i64, [64 x i8] }

; Function Attrs: mustprogress nounwind uwtable
define linkonce_odr hidden void @_ZN4Copy16pd_zero_to_bytesEPvm(ptr noundef %0, i64 noundef %1) #1 comdat align 2 {
  %3 = alloca ptr, align 8
  %4 = alloca i64, align 8
  store ptr %0, ptr %3, align 8
  store i64 %1, ptr %4, align 8
  %5 = load ptr, ptr %3, align 8
  %6 = load i64, ptr %4, align 8
  call void @llvm.memset.p0.i64(ptr align 1 %5, i8 0, i64 %6, i1 false)
  ret void
}

; Function Attrs: mustprogress nounwind uwtable
define linkonce_odr hidden void @_ZN4Copy13zero_to_bytesEPvm(ptr noundef %0, i64 noundef %1) #1 comdat align 2 {
  %3 = alloca ptr, align 8
  %4 = alloca i64, align 8
  store ptr %0, ptr %3, align 8
  store i64 %1, ptr %4, align 8
  %5 = load ptr, ptr %3, align 8
  %6 = load i64, ptr %4, align 8
  call void @_ZN4Copy16pd_zero_to_bytesEPvm(ptr noundef %5, i64 noundef %6)
  ret void
}

; Function Attrs: mustprogress nounwind uwtable
define hidden void @_ZN23ShenandoahCollectionSet5clearEv(ptr noundef nonnull align 8 dereferenceable(256) %0) #1 align 2 {
  %2 = alloca ptr, align 8
  store ptr %0, ptr %2, align 8
  %3 = load ptr, ptr %2, align 8
  %4 = getelementptr inbounds %class.ShenandoahCollectionSet, ptr %3, i32 0, i32 3
  %5 = load ptr, ptr %4, align 8
  %6 = getelementptr inbounds %class.ShenandoahCollectionSet, ptr %3, i32 0, i32 0
  %7 = load i64, ptr %6, align 8
  call void @_ZN4Copy13zero_to_bytesEPvm(ptr noundef %5, i64 noundef %7)
  %8 = getelementptr inbounds %class.ShenandoahCollectionSet, ptr %3, i32 0, i32 6
  store i64 0, ptr %8, align 8
  %9 = getelementptr inbounds %class.ShenandoahCollectionSet, ptr %3, i32 0, i32 7
  store i64 0, ptr %9, align 8
  %10 = getelementptr inbounds %class.ShenandoahCollectionSet, ptr %3, i32 0, i32 8
  store i64 0, ptr %10, align 8
  %11 = getelementptr inbounds %class.ShenandoahCollectionSet, ptr %3, i32 0, i32 10
  store volatile i64 0, ptr %11, align 8
  ret void
}