; Function Attrs: mustprogress nofree norecurse nounwind memory(write, argmem: readwrite, inaccessiblemem: readwrite) uwtable
define hidden void @_ZN23ShenandoahCollectionSet5clearEv(ptr noundef nonnull align 8 dereferenceable(256) %0) local_unnamed_addr #3 align 2 {
  %2 = getelementptr inbounds i8, ptr %0, i64 72
  %3 = load ptr, ptr %2, align 8
  %4 = load i64, ptr %0, align 8
  tail call void @llvm.memset.p0.i64(ptr align 1 %3, i8 0, i64 %4, i1 false)
  %5 = getelementptr inbounds i8, ptr %0, i64 96
  %6 = getelementptr inbounds i8, ptr %0, i64 184
  tail call void @llvm.memset.p0.i64(ptr noundef nonnull align 8 dereferenceable(24) %5, i8 0, i64 24, i1 false)
  store volatile i64 0, ptr %6, align 8
  ret void
}